     1 00000000                                 ; hello-os
     2 00000000                                 ; TAB=4
     3 00000000                                 
     4  = 0000000A                              CYLS	EQU		10				; どこまで読み込むか
     5 00000000                                 
     6                                          		ORG		0x7c00			; このプログラムがどこに読み込まれるのか
     7 00007C00                                 
     8 00007C00                                 ; 以下は標準的なFAT12フォーマットフロッピーディスクのための記述
     9 00007C00                                 
    10 00007C00 EB 4E                           		JMP		entry
    11 00007C02 90                              		DB		0x90
    12 00007C03 48 45 4C 4C 4F 49 50 4C         		DB		"HELLOIPL"		; ブートセクタの名前を自由に書いてよい（8バイト）
    13 00007C0B 0200                            		DW		512				; 1セクタの大きさ（512にしなければいけない）
    14 00007C0D 01                              		DB		1				; クラスタの大きさ（1セクタにしなければいけない）
    15 00007C0E 0001                            		DW		1				; FATがどこから始まるか（普通は1セクタ目からにする）
    16 00007C10 02                              		DB		2				; FATの個数（2にしなければいけない）
    17 00007C11 00E0                            		DW		224				; ルートディレクトリ領域の大きさ（普通は224エントリにする）
    18 00007C13 0B40                            		DW		2880			; このドライブの大きさ（2880セクタにしなければいけない）
    19 00007C15 F0                              		DB		0xf0			; メディアのタイプ（0xf0にしなければいけない）
    20 00007C16 0009                            		DW		9				; FAT領域の長さ（9セクタにしなければいけない）
    21 00007C18 0012                            		DW		18				; 1トラックにいくつのセクタがあるか（18にしなければいけない）
    22 00007C1A 0002                            		DW		2				; ヘッドの数（2にしなければいけない）
    23 00007C1C 00000000                        		DD		0				; パーティションを使ってないのでここは必ず0
    24 00007C20 00000B40                        		DD		2880			; このドライブ大きさをもう一度書く
    25 00007C24 00 00 29                        		DB		0,0,0x29		; よくわからないけどこの値にしておくといいらしい
    26 00007C27 FFFFFFFF                        		DD		0xffffffff		; たぶんボリュームシリアル番号
    27 00007C2B 48 45 4C 4C 4F 2D 4F 53 20 20   		DB		"HELLO-OS   "	; ディスクの名前（11バイト）
       00007C35 20 
    28 00007C36 46 41 54 31 32 20 20 20         		DB		"FAT12   "		; フォーマットの名前（8バイト）
    29 00007C3E 00 00 00 00 00 00 00 00 00 00   		RESB	18				; とりあえず18バイトあけておく
       00007C48 00 00 00 00 00 00 00 00 
    30 00007C50                                 
    31 00007C50                                 ; プログラム本体
    32 00007C50                                 
    33 00007C50                                 entry:
    34 00007C50 B8 0000                         		MOV		AX,0		;レジスタ初期化
    35 00007C53 8E D0                           		MOV 	SS,AX
    36 00007C55 BC 7C00                         		MOV		SP,0x7c00
    37 00007C58 8E D8                           		MOV		DS,AX
    38 00007C5A 8E C0                           		MOV		ES,AX
    39 00007C5C                                 
    40 00007C5C                                 	; ディスクを読む
    41 00007C5C B8 0820                         		MOV 	AX,0x0820
    42 00007C5F 8E C0                           		MOV		ES,AX
    43 00007C61 B5 00                           		MOV		CH,0		; シリンダ0
    44 00007C63 B6 00                           		MOV		DH,0		; ヘッド0
    45 00007C65 B1 02                           		MOV		CL,2		; セクタ2
    46 00007C67                                 
    47 00007C67                                 :readloop
    48 00007C67 BE 0000                         		MOV		SI,0
    49 00007C6A                                 
    50 00007C6A                                 :retry		
    51 00007C6A B4 02                           		MOV		AH,0x02		; AH=0x02 : ディスク読み込み
    52 00007C6C B0 01                           		MOV		AL,1			; 1セクタ
    53 00007C6E BB 0000                         		MOV		BX,0			
    54 00007C71 B2 00                           		MOV		DL,0x00		; Aドライブ
    55 00007C73 CD 13                           		INT		0x13			; ディスクBIOS呼び出し
    56 00007C75 0F 83 8387                      		JNC		next
      >> [ERROR #012] expression error.
    57 00007C79 83 C6 01                        		ADD		SI,1
    58 00007C7C 83 FE 05                        		CMP		SI,5
    59 00007C7F 73 32                           		JAE		error
    60 00007C81 B4 00                           		MOV		AH,0x00
    61 00007C83 B2 00                           		MOV		DL,0x00
    62 00007C85 CD 13                           		INT		0x13
    63 00007C87 E9 8376                         		JMP		retry
      >> [ERROR #012] expression error.
    64 00007C8A                                 		
    65 00007C8A                                 :next
    66 00007C8A 8C C0                           		MOV		AX,ES
    67 00007C8C                                 		ADD		AS,0x0020
      >> [ERROR #003] data size error.
    68 00007C8C 8E C0                           		MOV		ES,AX
    69 00007C8E 80 C1 01                        		ADD		CL,1
    70 00007C91 80 F9 12                        		CMP		CL,18
    71 00007C94 0F 86 8368                      		JBE		readloop
      >> [ERROR #012] expression error.
    72 00007C98 B1 01                           		MOV		CL,1
    73 00007C9A 80 C6 01                        		ADD		DH,1
    74 00007C9D 80 FE 02                        		CMP		DH,2
    75 00007CA0 0F 82 835C                      		JB		readloop
      >> [ERROR #012] expression error.
    76 00007CA4 B6 00                           		MOV		DH,0
    77 00007CA6 80 C5 01                        		ADD		CH,1
    78 00007CA9 80 FD 0A                        		CMP		CH,CYLS
    79 00007CAC 0F 82 8350                      		JB		readloop
      >> [ERROR #012] expression error.
    80 00007CB0                                 		
    81 00007CB0                                 
    82 00007CB0                                 
    83 00007CB0                                 ; 読み終わったけどとりあえずやることないので寝る
    84 00007CB0                                 
    85 00007CB0                                 fin:
    86 00007CB0 F4                              		HLT						; 何かあるまでCPUを停止させる
    87 00007CB1 EB FD                           		JMP		fin			; 無限ループ
    88 00007CB3                                 error:
    89 00007CB3 BE 7CC8                         		MOV 	SI,msg
    90 00007CB6                                 putloop:
    91 00007CB6 8A 04                           		MOV		AL,[SI]
    92 00007CB8 83 C6 01                        		ADD 	SI,1		; SIに1を足す
    93 00007CBB 3C 00                           		CMP		AL,0
    94 00007CBD 74 F1                           		JE		fin
    95 00007CBF B4 0E                           		MOV		AH,0x0e	; 一文字表示ファンクション
    96 00007CC1 BB 000F                         		MOV		BX,15		; カラーコード
    97 00007CC4 CD 10                           		INT		0x10		; ビデオBIOS呼び出し
    98 00007CC6 EB EE                           		JMP		putloop
    99 00007CC8                                 msg:
   100 00007CC8 0A 0A                           		DB		0x0a,0x0a	; 改行を2つ
   101 00007CCA 68 65 6C 6C 6F 2C 77 6F 72 6C   		DB		"hello,world"
       00007CD4 64 
   102 00007CD5 0A                              		DB		0x0a			; 改行
   103 00007CD6 00                              		DB		0
   104 00007CD7                                 
   105 00007CD7 00 00 00 00 00 00 00 00 00 00   		RESB 0x7dfe-$
       00007CE1 00 00 00 00 00 00 00 00 00 00 
       00007CEB 00 00 00 00 00 00 00 00 00 00 
       00007CF5 00 00 00 00 00 00 00 00 00 00 
       00007CFF 00 00 00 00 00 00 00 00 00 00 
       00007D09 00 00 00 00 00 00 00 00 00 00 
       00007D13 00 00 00 00 00 00 00 00 00 00 
       00007D1D 00 00 00 00 00 00 00 00 00 00 
       00007D27 00 00 00 00 00 00 00 00 00 00 
       00007D31 00 00 00 00 00 00 00 00 00 00 
       00007D3B 00 00 00 00 00 00 00 00 00 00 
       00007D45 00 00 00 00 00 00 00 00 00 00 
       00007D4F 00 00 00 00 00 00 00 00 00 00 
       00007D59 00 00 00 00 00 00 00 00 00 00 
       00007D63 00 00 00 00 00 00 00 00 00 00 
       00007D6D 00 00 00 00 00 00 00 00 00 00 
       00007D77 00 00 00 00 00 00 00 00 00 00 
       00007D81 00 00 00 00 00 00 00 00 00 00 
       00007D8B 00 00 00 00 00 00 00 00 00 00 
       00007D95 00 00 00 00 00 00 00 00 00 00 
       00007D9F 00 00 00 00 00 00 00 00 00 00 
       00007DA9 00 00 00 00 00 00 00 00 00 00 
       00007DB3 00 00 00 00 00 00 00 00 00 00 
       00007DBD 00 00 00 00 00 00 00 00 00 00 
       00007DC7 00 00 00 00 00 00 00 00 00 00 
       00007DD1 00 00 00 00 00 00 00 00 00 00 
       00007DDB 00 00 00 00 00 00 00 00 00 00 
       00007DE5 00 00 00 00 00 00 00 00 00 00 
       00007DEF 00 00 00 00 00 00 00 00 00 00 
       00007DF9 00 00 00 00 00 
   106 00007DFE                                 
   107 00007DFE 55 AA                           		DB	0x55,0xaa
   108 00007E00                                 
